target datalayout = "e-m:e-p270:32:32-p271:32:32-p272:64:64-i64:64-i128:128-f80:128-n8:16:32:64-S128"
target triple = "x86_64-pc-linux-gnu"

@PyExc_AssertionError = external global ptr, align 8
@.str.144 = private unnamed_addr constant [43 x i8] c"check_bytes_find_large(%zd, %zd) found %zd\00", align 1

; Function Attrs: nounwind uwtable
define internal i32 @check_bytes_find_large(i64 noundef %0, i64 noundef %1, ptr noundef %2) #0 {
  %4 = alloca i32, align 4
  %5 = alloca i64, align 8
  %6 = alloca i64, align 8
  %7 = alloca ptr, align 8
  %8 = alloca ptr, align 8
  %9 = alloca i32, align 4
  %10 = alloca i64, align 8
  store i64 %0, ptr %5, align 8, !tbaa !27
  store i64 %1, ptr %6, align 8, !tbaa !27
  store ptr %2, ptr %7, align 8, !tbaa !46
  call void @llvm.lifetime.start.p0(i64 8, ptr %8) #10
  %11 = load i64, ptr %5, align 8, !tbaa !27
  %12 = call ptr @PyMem_RawCalloc(i64 noundef %11, i64 noundef 1)
  store ptr %12, ptr %8, align 8, !tbaa !46
  %13 = load ptr, ptr %8, align 8, !tbaa !46
  %14 = icmp eq ptr %13, null
  br i1 %14, label %15, label %17

15:                                               ; preds = %3
  %16 = call ptr @PyErr_NoMemory()
  store i32 -1, ptr %4, align 4
  store i32 1, ptr %9, align 4
  br label %34

17:                                               ; preds = %3
  call void @llvm.lifetime.start.p0(i64 8, ptr %10) #10
  %18 = load ptr, ptr %8, align 8, !tbaa !46
  %19 = load i64, ptr %5, align 8, !tbaa !27
  %20 = load ptr, ptr %7, align 8, !tbaa !46
  %21 = load i64, ptr %6, align 8, !tbaa !27
  %22 = call i64 @_PyBytes_Find(ptr noundef %18, i64 noundef %19, ptr noundef %20, i64 noundef %21, i64 noundef 0)
  store i64 %22, ptr %10, align 8, !tbaa !27
  %23 = load ptr, ptr %8, align 8, !tbaa !46
  call void @PyMem_RawFree(ptr noundef %23)
  %24 = load i64, ptr %10, align 8, !tbaa !27
  %25 = icmp ne i64 %24, -1
  br i1 %25, label %26, label %32

26:                                               ; preds = %17
  %27 = load ptr, ptr @PyExc_AssertionError, align 8, !tbaa !3
  %28 = load i64, ptr %5, align 8, !tbaa !27
  %29 = load i64, ptr %6, align 8, !tbaa !27
  %30 = load i64, ptr %10, align 8, !tbaa !27
  %31 = call ptr (ptr, ptr, ...) @PyErr_Format(ptr noundef %27, ptr noundef @.str.144, i64 noundef %28, i64 noundef %29, i64 noundef %30)
  store i32 -1, ptr %4, align 4
  store i32 1, ptr %9, align 4
  br label %33

32:                                               ; preds = %17
  store i32 0, ptr %4, align 4
  store i32 1, ptr %9, align 4
  br label %33

33:                                               ; preds = %32, %26
  call void @llvm.lifetime.end.p0(i64 8, ptr %10) #10
  br label %34

34:                                               ; preds = %33, %15
  call void @llvm.lifetime.end.p0(i64 8, ptr %8) #10
  %35 = load i32, ptr %4, align 4
  ret i32 %35
}