; Function Attrs: nounwind uwtable
define internal fastcc range(i32 -1, 1) i32 @check_bytes_find_large(i64 noundef range(i64 2048, 32769) %0, i64 noundef range(i64 2, 17) %1, ptr noundef %2) unnamed_addr #0 {
  %4 = tail call ptr @PyMem_RawCalloc(i64 noundef %0, i64 noundef 1) #11
  %5 = icmp eq ptr %4, null
  br i1 %5, label %6, label %8

6:                                                ; preds = %3
  %7 = tail call ptr @PyErr_NoMemory() #11
  br label %13

8:                                                ; preds = %3
  %9 = tail call i64 @_PyBytes_Find(ptr noundef nonnull %4, i64 noundef %0, ptr noundef %2, i64 noundef %1, i64 noundef 0) #11
  tail call void @PyMem_RawFree(ptr noundef nonnull %4) #11
  %.not = icmp eq i64 %9, -1
  br i1 %.not, label %13, label %10

10:                                               ; preds = %8
  %11 = load ptr, ptr @PyExc_AssertionError, align 8, !tbaa !9
  %12 = tail call ptr (ptr, ptr, ...) @PyErr_Format(ptr noundef %11, ptr noundef nonnull @.str.144, i64 noundef %0, i64 noundef %1, i64 noundef %9) #11
  br label %13

13:                                               ; preds = %10, %8, %6
  %.0 = phi i32 [ -1, %6 ], [ -1, %10 ], [ 0, %8 ]
  ret i32 %.0
}